; Function Attrs: nounwind uwtable
define range(i32 -23, 1) i32 @CVodeSStolerances(ptr noundef captures(address_is_null) %0, double noundef %1, double noundef %2) local_unnamed_addr #0 {
  %4 = icmp eq ptr %0, null
  br i1 %4, label %5, label %6

5:                                                ; preds = %3
  tail call void (ptr, i32, i32, ptr, ptr, ptr, ...) @cvProcessError(ptr noundef null, i32 noundef -21, i32 noundef 667, ptr noundef nonnull @__func__.CVodeSStolerances, ptr noundef nonnull @.str, ptr noundef nonnull @.str.4)
  br label %27

6:                                                ; preds = %3
  %7 = getelementptr inbounds nuw i8, ptr %0, i64 1132
  %8 = load i32, ptr %7, align 4, !tbaa !97
  %9 = icmp eq i32 %8, 0
  br i1 %9, label %10, label %11

10:                                               ; preds = %6
  tail call void (ptr, i32, i32, ptr, ptr, ptr, ...) @cvProcessError(ptr noundef nonnull %0, i32 noundef -23, i32 noundef 674, ptr noundef nonnull @__func__.CVodeSStolerances, ptr noundef nonnull @.str, ptr noundef nonnull @.str.10)
  br label %27

11:                                               ; preds = %6
  %12 = fcmp olt double %1, 0.000000e+00
  br i1 %12, label %13, label %14

13:                                               ; preds = %11
  tail call void (ptr, i32, i32, ptr, ptr, ptr, ...) @cvProcessError(ptr noundef nonnull %0, i32 noundef -22, i32 noundef 683, ptr noundef nonnull @__func__.CVodeSStolerances, ptr noundef nonnull @.str, ptr noundef nonnull @.str.11)
  br label %27

14:                                               ; preds = %11
  %15 = fcmp olt double %2, 0.000000e+00
  br i1 %15, label %16, label %17

16:                                               ; preds = %14
  tail call void (ptr, i32, i32, ptr, ptr, ptr, ...) @cvProcessError(ptr noundef nonnull %0, i32 noundef -22, i32 noundef 690, ptr noundef nonnull @__func__.CVodeSStolerances, ptr noundef nonnull @.str, ptr noundef nonnull @.str.12)
  br label %27

17:                                               ; preds = %14
  %18 = getelementptr inbounds nuw i8, ptr %0, i64 40
  store double %1, ptr %18, align 8, !tbaa !102
  %19 = getelementptr inbounds nuw i8, ptr %0, i64 48
  store double %2, ptr %19, align 8, !tbaa !103
  %20 = fcmp oeq double %2, 0.000000e+00
  %21 = zext i1 %20 to i32
  %22 = getelementptr inbounds nuw i8, ptr %0, i64 64
  store i32 %21, ptr %22, align 8, !tbaa !19
  %23 = getelementptr inbounds nuw i8, ptr %0, i64 36
  store i32 1, ptr %23, align 4, !tbaa !104
  %24 = getelementptr inbounds nuw i8, ptr %0, i64 68
  store i32 0, ptr %24, align 4, !tbaa !105
  %25 = getelementptr inbounds nuw i8, ptr %0, i64 72
  store ptr @cvEwtSet, ptr %25, align 8, !tbaa !106
  %26 = getelementptr inbounds nuw i8, ptr %0, i64 80
  store ptr null, ptr %26, align 8, !tbaa !107
  br label %27

27:                                               ; preds = %17, %16, %13, %10, %5
  %.0 = phi i32 [ -21, %5 ], [ -23, %10 ], [ -22, %13 ], [ -22, %16 ], [ 0, %17 ]
  ret i32 %.0
}